; Function Attrs: nounwind uwtable
define zeroext range(i8 0, 2) i8 @l_Array_anyMUnsafe_any___at___private_Lean_Compiler_LCNF_DependsOn_0__Lean_Compiler_LCNF_letValueDepOn___spec__1(ptr noundef readonly captures(none) %0, i64 noundef %1, i64 noundef %2, ptr noundef %3) local_unnamed_addr #0 {
  %.not31 = icmp eq i64 %1, %2
  br i1 %.not31, label %lean_dec.exit._crit_edge, label %.lr.ph

.lr.ph:                                           ; preds = %4
  %5 = getelementptr inbounds nuw i8, ptr %0, i64 24
  br label %8

6:                                                ; preds = %lean_dec.exit
  %7 = add i64 %.01532, 1
  %.not = icmp eq i64 %7, %2
  br i1 %.not, label %lean_dec.exit._crit_edge, label %8

8:                                                ; preds = %.lr.ph, %6
  %.01532 = phi i64 [ %1, %.lr.ph ], [ %7, %6 ]
  %9 = getelementptr inbounds nuw [0 x ptr], ptr %5, i64 0, i64 %.01532
  %10 = load ptr, ptr %9, align 8, !tbaa !10
  %11 = ptrtoint ptr %10 to i64
  %12 = and i64 %11, 1
  %.not.i20 = icmp eq i64 %12, 0
  br i1 %.not.i20, label %13, label %lean_array_uget.exit

13:                                               ; preds = %8
  %.val.i.i = load i32, ptr %10, align 4, !tbaa !4
  %14 = icmp sgt i32 %.val.i.i, 0
  br i1 %14, label %15, label %17, !prof !9

15:                                               ; preds = %13
  %16 = add nuw i32 %.val.i.i, 1
  store i32 %16, ptr %10, align 4, !tbaa !4
  br label %21

17:                                               ; preds = %13
  %.not.i.i = icmp eq i32 %.val.i.i, 0
  br i1 %.not.i.i, label %21, label %18

18:                                               ; preds = %17
  tail call void @lean_inc_ref_cold(ptr noundef nonnull %10) #3
  br label %21

lean_array_uget.exit:                             ; preds = %8
  %19 = lshr i64 %11, 1
  %20 = trunc i64 %19 to i32
  br label %lean_obj_tag.exit.i

21:                                               ; preds = %15, %17, %18
  %22 = getelementptr i8, ptr %10, i64 4
  %.val.i.i22 = load i32, ptr %22, align 4
  %23 = lshr i32 %.val.i.i22, 24
  br label %lean_obj_tag.exit.i

lean_obj_tag.exit.i:                              ; preds = %21, %lean_array_uget.exit
  %.0.i.i = phi i32 [ %20, %lean_array_uget.exit ], [ %23, %21 ]
  switch i32 %.0.i.i, label %39 [
    i32 0, label %l___private_Lean_Compiler_LCNF_DependsOn_0__Lean_Compiler_LCNF_argDepOn.exit
    i32 1, label %24
  ]

24:                                               ; preds = %lean_obj_tag.exit.i
  %25 = getelementptr inbounds nuw i8, ptr %10, i64 8
  %26 = load ptr, ptr %25, align 8, !tbaa !10
  %27 = tail call ptr @l_Lean_RBNode_findCore___at___private_Lean_Meta_FunInfo_0__Lean_Meta_getFunInfoAux___spec__2(ptr noundef %3, ptr noundef %26) #3
  %28 = ptrtoint ptr %27 to i64
  %29 = and i64 %28, 1
  %.not.i6.i.i = icmp eq i64 %29, 0
  br i1 %.not.i6.i.i, label %lean_obj_tag.exit.thread.i.i, label %lean_obj_tag.exit.i.i

lean_obj_tag.exit.i.i:                            ; preds = %24
  %30 = and i64 %28, 8589934590
  %.not30 = icmp eq i64 %30, 0
  br label %l___private_Lean_Compiler_LCNF_DependsOn_0__Lean_Compiler_LCNF_argDepOn.exit

lean_obj_tag.exit.thread.i.i:                     ; preds = %24
  %31 = getelementptr i8, ptr %27, i64 4
  %.val.i.i.i = load i32, ptr %31, align 4
  %32 = icmp ult i32 %.val.i.i.i, 16777216
  br i1 %32, label %l___private_Lean_Compiler_LCNF_DependsOn_0__Lean_Compiler_LCNF_argDepOn.exit, label %.thread.i.i

.thread.i.i:                                      ; preds = %lean_obj_tag.exit.thread.i.i
  %33 = load i32, ptr %27, align 4, !tbaa !4
  %34 = icmp sgt i32 %33, 1
  br i1 %34, label %35, label %37, !prof !9

35:                                               ; preds = %.thread.i.i
  %36 = add nsw i32 %33, -1
  store i32 %36, ptr %27, align 4, !tbaa !4
  br label %l___private_Lean_Compiler_LCNF_DependsOn_0__Lean_Compiler_LCNF_argDepOn.exit

37:                                               ; preds = %.thread.i.i
  %.not.i.i.i = icmp eq i32 %33, 0
  br i1 %.not.i.i.i, label %l___private_Lean_Compiler_LCNF_DependsOn_0__Lean_Compiler_LCNF_argDepOn.exit, label %38

38:                                               ; preds = %37
  tail call void @lean_dec_ref_cold(ptr noundef nonnull %27) #3
  br label %l___private_Lean_Compiler_LCNF_DependsOn_0__Lean_Compiler_LCNF_argDepOn.exit

39:                                               ; preds = %lean_obj_tag.exit.i
  %40 = getelementptr inbounds nuw i8, ptr %10, i64 8
  %41 = load ptr, ptr %40, align 8, !tbaa !10
  %42 = tail call zeroext i8 @l_Lean_Expr_hasAnyFVar_visit___at___private_Lean_Compiler_LCNF_DependsOn_0__Lean_Compiler_LCNF_typeDepOn___spec__1(ptr noundef %3, ptr noundef %41)
  %43 = icmp eq i8 %42, 0
  br label %l___private_Lean_Compiler_LCNF_DependsOn_0__Lean_Compiler_LCNF_argDepOn.exit

l___private_Lean_Compiler_LCNF_DependsOn_0__Lean_Compiler_LCNF_argDepOn.exit: ; preds = %lean_obj_tag.exit.i, %lean_obj_tag.exit.i.i, %lean_obj_tag.exit.thread.i.i, %35, %37, %38, %39
  %.0.i = phi i1 [ %43, %39 ], [ true, %lean_obj_tag.exit.i ], [ true, %lean_obj_tag.exit.thread.i.i ], [ false, %38 ], [ false, %37 ], [ false, %35 ], [ %.not30, %lean_obj_tag.exit.i.i ]
  br i1 %.not.i20, label %44, label %lean_dec.exit

44:                                               ; preds = %l___private_Lean_Compiler_LCNF_DependsOn_0__Lean_Compiler_LCNF_argDepOn.exit
  %45 = load i32, ptr %10, align 4, !tbaa !4
  %46 = icmp sgt i32 %45, 1
  br i1 %46, label %47, label %49, !prof !9

47:                                               ; preds = %44
  %48 = add nsw i32 %45, -1
  store i32 %48, ptr %10, align 4, !tbaa !4
  br label %lean_dec.exit

49:                                               ; preds = %44
  %.not.i = icmp eq i32 %45, 0
  br i1 %.not.i, label %lean_dec.exit, label %50

50:                                               ; preds = %49
  tail call void @lean_dec_ref_cold(ptr noundef nonnull %10) #3
  br label %lean_dec.exit

lean_dec.exit:                                    ; preds = %50, %49, %47, %l___private_Lean_Compiler_LCNF_DependsOn_0__Lean_Compiler_LCNF_argDepOn.exit
  br i1 %.0.i, label %6, label %lean_dec.exit._crit_edge

lean_dec.exit._crit_edge:                         ; preds = %6, %lean_dec.exit, %4
  %.2.ph = phi i8 [ 0, %4 ], [ 1, %lean_dec.exit ], [ 0, %6 ]
  ret i8 %.2.ph
}